target datalayout = "e-m:e-p270:32:32-p271:32:32-p272:64:64-i64:64-i128:128-f80:128-n8:16:32:64-S128"
target triple = "x86_64-pc-linux-gnu"

%struct.ssl_connection_st = type { %struct.ssl_st, ptr, i32, ptr, ptr, ptr, i32, ptr, i32, i32, i32, i32, %struct.OSSL_TIME, %struct.OSSL_TIME, %struct.ossl_statem_st, i32, ptr, ptr, i64, i64, i64, %struct.ossl_quic_tls_callbacks_st, ptr, ptr, %struct.anon, ptr, ptr, ptr, i32, ptr, %struct.ssl_dane_st, ptr, ptr, ptr, ptr, i32, [64 x i8], [64 x i8], [64 x i8], [64 x i8], [64 x i8], [64 x i8], [64 x i8], [64 x i8], [64 x i8], [64 x i8], [64 x i8], [64 x i8], ptr, [64 x i8], i64, i32, i64, [32 x i8], ptr, ptr, ptr, i64, ptr, [32 x i8], i64, i32, ptr, ptr, i32, i32, ptr, ptr, ptr, ptr, ptr, i64, ptr, ptr, i64, i32, i32, i32, i64, i32, i32, i64, i64, i64, %struct.anon.1, ptr, i32, ptr, ptr, ptr, i32, ptr, ptr, ptr, i32, i32, i32, i32, ptr, i64, i32, ptr, %struct.srp_ctx_st, ptr, %struct.record_layer_st, ptr, ptr, ptr, ptr, i64, i32, i32, i32, i64, i64, i64, ptr, ptr, ptr, ptr, ptr, i64, ptr, i64, ptr, i64 }
%struct.ssl_st = type { i32, ptr, ptr, ptr, %struct.CRYPTO_REF_COUNT, ptr, %struct.crypto_ex_data_st }
%struct.CRYPTO_REF_COUNT = type { i32 }
%struct.crypto_ex_data_st = type { ptr, ptr }
%struct.OSSL_TIME = type { i64 }
%struct.ossl_statem_st = type { i32, i32, i32, i32, i32, i32, i32, i32, i32, i32, i32, i32, i32, ptr, ptr, ptr, i8 }
%struct.ossl_quic_tls_callbacks_st = type { ptr, ptr, ptr, ptr, ptr, ptr }
%struct.anon = type { i64, [32 x i8], [32 x i8], ptr, ptr, i32, i32, i32, i32, [2 x i8], i32, i32, i32, i32, %struct.anon.0, [64 x i8], i64, [64 x i8], i64, i32, i32, ptr, i64, ptr, i64, i32, i8, i8, i16, ptr, i16 }
%struct.anon.0 = type { [128 x i8], i64, [128 x i8], i64, i64, i32, ptr, ptr, [4 x ptr], [4 x i16], i64, i32, ptr, i64, ptr, i64, ptr, ptr, ptr, i32, i64, ptr, i32, ptr, i64, ptr, i64, ptr, i64, ptr, ptr, ptr, ptr, i64, i64, ptr, ptr, i32, i32, i32, i32 }
%struct.ssl_dane_st = type { ptr, ptr, ptr, ptr, ptr, i32, i32, i32, i64 }
%struct.anon.1 = type { [29 x i8], ptr, ptr, ptr, i32, ptr, i16, i32, %struct.anon.2, i32, i32, i64, ptr, i64, ptr, i64, ptr, i64, ptr, i64, ptr, i64, ptr, ptr, ptr, ptr, ptr, ptr, ptr, i64, ptr, i64, i32, i32, i32, i32, ptr, i64, i32, i8, i32, [4 x i32], i32, i8, i8, i8, i8 }
%struct.anon.2 = type { ptr, ptr, ptr, i64 }
%struct.srp_ctx_st = type { ptr, ptr, ptr, ptr, ptr, ptr, ptr, ptr, ptr, ptr, ptr, ptr, ptr, ptr, i32, i64 }
%struct.record_layer_st = type { ptr, ptr, ptr, ptr, ptr, ptr, ptr, ptr, i64, i32, i64, [4 x i8], i64, i64, i8, ptr, i32, ptr, ptr, ptr, i64, i64, i64, i64, [32 x %struct.tls_record_st] }
%struct.tls_record_st = type { ptr, i32, i8, ptr, ptr, i64, i64, i16, [8 x i8] }
%struct.ssl_session_st = type { i32, i64, [64 x i8], [512 x i8], i64, [32 x i8], i64, [32 x i8], ptr, ptr, i32, ptr, ptr, ptr, i64, %struct.OSSL_TIME, %struct.OSSL_TIME, %struct.OSSL_TIME, i32, ptr, i64, i32, %struct.crypto_ex_data_st, %struct.anon.5, ptr, ptr, i64, i32, ptr, ptr, ptr, %struct.CRYPTO_REF_COUNT }
%struct.anon.5 = type { ptr, ptr, i64, i64, i32, i32, ptr, i64, i8 }

; Function Attrs: nounwind uwtable
define ptr @SSL_get_peer_cert_chain(ptr noundef %0) #0 {
  %2 = alloca ptr, align 8
  %3 = alloca ptr, align 8
  %4 = alloca ptr, align 8
  %5 = alloca ptr, align 8
  %6 = alloca i32, align 4
  store ptr %0, ptr %3, align 8, !tbaa !16
  call void @llvm.lifetime.start.p0(i64 8, ptr %4) #9
  call void @llvm.lifetime.start.p0(i64 8, ptr %5) #9
  %7 = load ptr, ptr %3, align 8, !tbaa !16
  %8 = icmp eq ptr %7, null
  br i1 %8, label %9, label %10

9:                                                ; preds = %1
  br label %31

10:                                               ; preds = %1
  %11 = load ptr, ptr %3, align 8, !tbaa !16
  %12 = getelementptr inbounds nuw %struct.ssl_st, ptr %11, i32 0, i32 0
  %13 = load i32, ptr %12, align 8, !tbaa !29
  %14 = icmp eq i32 %13, 0
  br i1 %14, label %15, label %17

15:                                               ; preds = %10
  %16 = load ptr, ptr %3, align 8, !tbaa !16
  br label %29

17:                                               ; preds = %10
  %18 = load ptr, ptr %3, align 8, !tbaa !16
  %19 = getelementptr inbounds nuw %struct.ssl_st, ptr %18, i32 0, i32 0
  %20 = load i32, ptr %19, align 8, !tbaa !29
  %21 = and i32 %20, 128
  %22 = icmp ne i32 %21, 0
  br i1 %22, label %23, label %26

23:                                               ; preds = %17
  %24 = load ptr, ptr %3, align 8, !tbaa !16
  %25 = call ptr @ossl_quic_obj_get0_handshake_layer(ptr noundef %24)
  br label %27

26:                                               ; preds = %17
  br label %27

27:                                               ; preds = %26, %23
  %28 = phi ptr [ %25, %23 ], [ null, %26 ]
  br label %29

29:                                               ; preds = %27, %15
  %30 = phi ptr [ %16, %15 ], [ %28, %27 ]
  br label %31

31:                                               ; preds = %29, %9
  %32 = phi ptr [ null, %9 ], [ %30, %29 ]
  store ptr %32, ptr %5, align 8, !tbaa !3
  %33 = load ptr, ptr %5, align 8, !tbaa !3
  %34 = icmp eq ptr %33, null
  br i1 %34, label %35, label %36

35:                                               ; preds = %31
  store ptr null, ptr %2, align 8
  store i32 1, ptr %6, align 4
  br label %50

36:                                               ; preds = %31
  %37 = load ptr, ptr %5, align 8, !tbaa !3
  %38 = getelementptr inbounds nuw %struct.ssl_connection_st, ptr %37, i32 0, i32 54
  %39 = load ptr, ptr %38, align 8, !tbaa !30
  %40 = icmp eq ptr %39, null
  br i1 %40, label %41, label %42

41:                                               ; preds = %36
  store ptr null, ptr %4, align 8, !tbaa !422
  br label %48

42:                                               ; preds = %36
  %43 = load ptr, ptr %5, align 8, !tbaa !3
  %44 = getelementptr inbounds nuw %struct.ssl_connection_st, ptr %43, i32 0, i32 54
  %45 = load ptr, ptr %44, align 8, !tbaa !30
  %46 = getelementptr inbounds nuw %struct.ssl_session_st, ptr %45, i32 0, i32 13
  %47 = load ptr, ptr %46, align 8, !tbaa !423
  store ptr %47, ptr %4, align 8, !tbaa !422
  br label %48

48:                                               ; preds = %42, %41
  %49 = load ptr, ptr %4, align 8, !tbaa !422
  store ptr %49, ptr %2, align 8
  store i32 1, ptr %6, align 4
  br label %50

50:                                               ; preds = %48, %35
  call void @llvm.lifetime.end.p0(i64 8, ptr %5) #9
  call void @llvm.lifetime.end.p0(i64 8, ptr %4) #9
  %51 = load ptr, ptr %2, align 8
  ret ptr %51
}