; Function Attrs: nounwind uwtable
define ptr @SSL_get_peer_cert_chain(ptr noundef %0) local_unnamed_addr #0 {
  %2 = icmp eq ptr %0, null
  br i1 %2, label %.thread, label %3

3:                                                ; preds = %1
  %4 = load i32, ptr %0, align 8, !tbaa !19
  %5 = icmp eq i32 %4, 0
  br i1 %5, label %.thread15, label %6

6:                                                ; preds = %3
  %7 = and i32 %4, 128
  %.not = icmp eq i32 %7, 0
  br i1 %.not, label %.thread, label %8

8:                                                ; preds = %6
  %9 = tail call ptr @ossl_quic_obj_get0_handshake_layer(ptr noundef nonnull %0) #20
  %10 = icmp eq ptr %9, null
  br i1 %10, label %.thread, label %.thread15

.thread15:                                        ; preds = %3, %8
  %11 = phi ptr [ %9, %8 ], [ %0, %3 ]
  %12 = getelementptr inbounds nuw i8, ptr %11, i64 2304
  %13 = load ptr, ptr %12, align 8, !tbaa !20
  %14 = icmp eq ptr %13, null
  br i1 %14, label %.thread, label %15

15:                                               ; preds = %.thread15
  %16 = getelementptr inbounds nuw i8, ptr %13, i64 712
  %17 = load ptr, ptr %16, align 8, !tbaa !383
  br label %.thread

.thread:                                          ; preds = %6, %1, %15, %.thread15, %8
  %.0 = phi ptr [ null, %8 ], [ %17, %15 ], [ null, %.thread15 ], [ null, %1 ], [ null, %6 ]
  ret ptr %.0
}